; Function Attrs: mustprogress nounwind uwtable
define void @_ZN9t_commrec5setDDEOSt10unique_ptrI12gmx_domdec_tSt14default_deleteIS1_EE(ptr nocapture noundef nonnull align 8 dereferenceable(108) %0, ptr nocapture noundef nonnull align 8 dereferenceable(8) %1) local_unnamed_addr #2 align 2 {
  %3 = getelementptr inbounds i8, ptr %0, i64 88
  %4 = load ptr, ptr %1, align 8
  store ptr null, ptr %1, align 8
  %5 = load ptr, ptr %3, align 8
  store ptr %4, ptr %3, align 8
  %.not.i.i.i.i = icmp eq ptr %5, null
  br i1 %.not.i.i.i.i, label %_ZNSt10unique_ptrI12gmx_domdec_tSt14default_deleteIS0_EEaSEOS3_.exit, label %_ZNKSt14default_deleteI12gmx_domdec_tEclEPS0_.exit.i.i.i.i

_ZNKSt14default_deleteI12gmx_domdec_tEclEPS0_.exit.i.i.i.i: ; preds = %2
  tail call void @_ZN12gmx_domdec_tD1Ev(ptr noundef nonnull align 8 dereferenceable(456) %5) #5
  tail call void @_ZdlPv(ptr noundef nonnull %5) #6
  %.pre = load ptr, ptr %3, align 8
  br label %_ZNSt10unique_ptrI12gmx_domdec_tSt14default_deleteIS0_EEaSEOS3_.exit

_ZNSt10unique_ptrI12gmx_domdec_tSt14default_deleteIS0_EEaSEOS3_.exit: ; preds = %2, %_ZNKSt14default_deleteI12gmx_domdec_tEclEPS0_.exit.i.i.i.i
  %6 = phi ptr [ %4, %2 ], [ %.pre, %_ZNKSt14default_deleteI12gmx_domdec_tEclEPS0_.exit.i.i.i.i ]
  %7 = getelementptr inbounds i8, ptr %0, i64 96
  store ptr %6, ptr %7, align 8
  ret void
}